target datalayout = "e-m:e-p270:32:32-p271:32:32-p272:64:64-i64:64-i128:128-f80:128-n8:16:32:64-S128"
target triple = "x86_64-pc-linux-gnu"

%struct.Query = type { i32, i32, i32, i64, i8, ptr, i32, i8, i8, i8, i8, i8, i8, i8, i8, i8, i8, i8, ptr, ptr, ptr, ptr, ptr, i32, ptr, ptr, i32, ptr, ptr, ptr, ptr, ptr, i8, ptr, ptr, ptr, ptr, ptr, ptr, ptr, i32, ptr, ptr, ptr, ptr, i32, i32 }
%struct.PlannerInfo = type { i32, ptr, ptr, i32, ptr, ptr, ptr, ptr, i32, ptr, ptr, ptr, ptr, ptr, ptr, ptr, ptr, i32, ptr, ptr, ptr, ptr, ptr, i8, ptr, ptr, ptr, ptr, ptr, i32, ptr, ptr, ptr, ptr, ptr, ptr, ptr, i32, ptr, ptr, ptr, i32, ptr, ptr, ptr, ptr, ptr, ptr, [8 x ptr], [8 x ptr], ptr, ptr, ptr, ptr, ptr, ptr, ptr, double, double, double, i32, i8, i8, i8, i8, i8, i8, i8, i32, ptr, ptr, i32, i8, i8, i32, ptr, ptr, ptr, ptr, ptr, ptr, i8, ptr }
%struct.List = type { i32, i32, i32, ptr, [0 x %union.ListCell] }
%union.ListCell = type { ptr }
%struct.ForEachState = type { ptr, i32 }

@enable_distinct_reordering = dso_local global i8 1, align 1
@enable_incremental_sort = external global i8, align 1

; Function Attrs: inlinehint nounwind uwtable
define internal i32 @list_length(ptr noundef %0) #2 {
  %2 = alloca ptr, align 8
  store ptr %0, ptr %2, align 8
  %3 = load ptr, ptr %2, align 8
  %4 = icmp ne ptr %3, null
  br i1 %4, label %5, label %9

5:                                                ; preds = %1
  %6 = load ptr, ptr %2, align 8
  %7 = getelementptr inbounds nuw %struct.List, ptr %6, i32 0, i32 1
  %8 = load i32, ptr %7, align 4
  br label %10

9:                                                ; preds = %1
  br label %10

10:                                               ; preds = %9, %5
  %11 = phi i32 [ %8, %5 ], [ 0, %9 ]
  ret i32 %11
}

; Function Attrs: nounwind uwtable
define internal ptr @get_useful_pathkeys_for_distinct(ptr noundef %0, ptr noundef %1, ptr noundef %2) #0 {
  %4 = alloca ptr, align 8
  %5 = alloca ptr, align 8
  %6 = alloca ptr, align 8
  %7 = alloca ptr, align 8
  %8 = alloca ptr, align 8
  %9 = alloca ptr, align 8
  %10 = alloca i32, align 4
  %11 = alloca ptr, align 8
  %12 = alloca ptr, align 8
  %13 = alloca %struct.ForEachState, align 8
  store ptr %0, ptr %5, align 8
  store ptr %1, ptr %6, align 8
  store ptr %2, ptr %7, align 8
  call void @llvm.lifetime.start.p0(i64 8, ptr %8) #8
  store ptr null, ptr %8, align 8
  call void @llvm.lifetime.start.p0(i64 8, ptr %9) #8
  store ptr null, ptr %9, align 8
  %14 = load ptr, ptr %8, align 8
  %15 = load ptr, ptr %6, align 8
  %16 = call ptr @lappend(ptr noundef %14, ptr noundef %15)
  store ptr %16, ptr %8, align 8
  %17 = load i8, ptr @enable_distinct_reordering, align 1, !range !4, !noundef !5
  %18 = trunc i8 %17 to i1
  br i1 %18, label %21, label %19

19:                                               ; preds = %3
  %20 = load ptr, ptr %8, align 8
  store ptr %20, ptr %4, align 8
  store i32 1, ptr %10, align 4
  br label %117

21:                                               ; preds = %3
  call void @llvm.lifetime.start.p0(i64 8, ptr %11) #8
  store ptr null, ptr %11, align 8
  call void @llvm.lifetime.start.p0(i64 8, ptr %12) #8
  store ptr inttoptr (i64 1 to ptr), ptr %12, align 8
  br label %22

22:                                               ; preds = %85, %21
  %23 = load ptr, ptr %12, align 8
  %24 = icmp ne ptr %23, null
  br i1 %24, label %26, label %25

25:                                               ; preds = %22
  store i32 2, ptr %10, align 4
  call void @llvm.lifetime.end.p0(i64 8, ptr %12) #8
  call void @llvm.lifetime.end.p0(i64 8, ptr %11) #8
  br label %86

26:                                               ; preds = %22
  call void @llvm.lifetime.start.p0(i64 16, ptr %13) #8
  %27 = getelementptr inbounds nuw %struct.ForEachState, ptr %13, i32 0, i32 0
  %28 = load ptr, ptr %7, align 8
  store ptr %28, ptr %27, align 8
  %29 = getelementptr inbounds nuw %struct.ForEachState, ptr %13, i32 0, i32 1
  store i32 0, ptr %29, align 8
  %30 = getelementptr i8, ptr %13, i64 12
  call void @llvm.memset.p0.i64(ptr align 4 %30, i8 0, i64 4, i1 false)
  br label %31

31:                                               ; preds = %79, %26
  %32 = getelementptr inbounds nuw %struct.ForEachState, ptr %13, i32 0, i32 0
  %33 = load ptr, ptr %32, align 8
  %34 = icmp ne ptr %33, null
  br i1 %34, label %35, label %53

35:                                               ; preds = %31
  %36 = getelementptr inbounds nuw %struct.ForEachState, ptr %13, i32 0, i32 1
  %37 = load i32, ptr %36, align 8
  %38 = getelementptr inbounds nuw %struct.ForEachState, ptr %13, i32 0, i32 0
  %39 = load ptr, ptr %38, align 8
  %40 = getelementptr inbounds nuw %struct.List, ptr %39, i32 0, i32 1
  %41 = load i32, ptr %40, align 4
  %42 = icmp slt i32 %37, %41
  br i1 %42, label %43, label %53

43:                                               ; preds = %35
  %44 = getelementptr inbounds nuw %struct.ForEachState, ptr %13, i32 0, i32 0
  %45 = load ptr, ptr %44, align 8
  %46 = getelementptr inbounds nuw %struct.List, ptr %45, i32 0, i32 3
  %47 = load ptr, ptr %46, align 8
  %48 = getelementptr inbounds nuw %struct.ForEachState, ptr %13, i32 0, i32 1
  %49 = load i32, ptr %48, align 8
  %50 = sext i32 %49 to i64
  %51 = getelementptr inbounds %union.ListCell, ptr %47, i64 %50
  %52 = load ptr, ptr %51, align 8
  store ptr %52, ptr %11, align 8
  br label %53

53:                                               ; preds = %43, %35, %31
  %54 = phi i1 [ false, %35 ], [ false, %31 ], [ true, %43 ]
  br i1 %54, label %56, label %55

55:                                               ; preds = %53
  store i32 5, ptr %10, align 4
  br label %83

56:                                               ; preds = %53
  %57 = load ptr, ptr %6, align 8
  %58 = load ptr, ptr %11, align 8
  %59 = call zeroext i1 @list_member_ptr(ptr noundef %57, ptr noundef %58)
  br i1 %59, label %61, label %60

60:                                               ; preds = %56
  store i32 5, ptr %10, align 4
  br label %83

61:                                               ; preds = %56
  %62 = load ptr, ptr %5, align 8
  %63 = getelementptr inbounds nuw %struct.PlannerInfo, ptr %62, i32 0, i32 1
  %64 = load ptr, ptr %63, align 8
  %65 = getelementptr inbounds nuw %struct.Query, ptr %64, i32 0, i32 11
  %66 = load i8, ptr %65, align 8, !range !4, !noundef !5
  %67 = trunc i8 %66 to i1
  br i1 %67, label %68, label %75

68:                                               ; preds = %61
  %69 = load ptr, ptr %5, align 8
  %70 = getelementptr inbounds nuw %struct.PlannerInfo, ptr %69, i32 0, i32 43
  %71 = load ptr, ptr %70, align 8
  %72 = load ptr, ptr %11, align 8
  %73 = call zeroext i1 @list_member_ptr(ptr noundef %71, ptr noundef %72)
  br i1 %73, label %75, label %74

74:                                               ; preds = %68
  store i32 5, ptr %10, align 4
  br label %83

75:                                               ; preds = %68, %61
  %76 = load ptr, ptr %9, align 8
  %77 = load ptr, ptr %11, align 8
  %78 = call ptr @lappend(ptr noundef %76, ptr noundef %77)
  store ptr %78, ptr %9, align 8
  br label %79

79:                                               ; preds = %75
  %80 = getelementptr inbounds nuw %struct.ForEachState, ptr %13, i32 0, i32 1
  %81 = load i32, ptr %80, align 8
  %82 = add i32 %81, 1
  store i32 %82, ptr %80, align 8
  br label %31, !llvm.loop !123

83:                                               ; preds = %74, %60, %55
  call void @llvm.lifetime.end.p0(i64 16, ptr %13) #8
  br label %84

84:                                               ; preds = %83
  br label %85

85:                                               ; preds = %84
  store ptr null, ptr %12, align 8
  br label %22, !llvm.loop !124

86:                                               ; preds = %25
  %87 = load ptr, ptr %9, align 8
  %88 = icmp eq ptr %87, null
  br i1 %88, label %89, label %91

89:                                               ; preds = %86
  %90 = load ptr, ptr %8, align 8
  store ptr %90, ptr %4, align 8
  store i32 1, ptr %10, align 4
  br label %117

91:                                               ; preds = %86
  %92 = load ptr, ptr %9, align 8
  %93 = call i32 @list_length(ptr noundef %92)
  %94 = load ptr, ptr %6, align 8
  %95 = call i32 @list_length(ptr noundef %94)
  %96 = icmp slt i32 %93, %95
  br i1 %96, label %97, label %102

97:                                               ; preds = %91
  %98 = load i8, ptr @enable_incremental_sort, align 1, !range !4, !noundef !5
  %99 = trunc i8 %98 to i1
  br i1 %99, label %102, label %100

100:                                              ; preds = %97
  %101 = load ptr, ptr %8, align 8
  store ptr %101, ptr %4, align 8
  store i32 1, ptr %10, align 4
  br label %117

102:                                              ; preds = %97, %91
  %103 = load ptr, ptr %9, align 8
  %104 = load ptr, ptr %6, align 8
  %105 = call ptr @list_concat_unique_ptr(ptr noundef %103, ptr noundef %104)
  store ptr %105, ptr %9, align 8
  %106 = load ptr, ptr %6, align 8
  %107 = load ptr, ptr %9, align 8
  %108 = call i32 @compare_pathkeys(ptr noundef %106, ptr noundef %107)
  %109 = icmp eq i32 %108, 0
  br i1 %109, label %110, label %112

110:                                              ; preds = %102
  %111 = load ptr, ptr %8, align 8
  store ptr %111, ptr %4, align 8
  store i32 1, ptr %10, align 4
  br label %117

112:                                              ; preds = %102
  %113 = load ptr, ptr %8, align 8
  %114 = load ptr, ptr %9, align 8
  %115 = call ptr @lappend(ptr noundef %113, ptr noundef %114)
  store ptr %115, ptr %8, align 8
  %116 = load ptr, ptr %8, align 8
  store ptr %116, ptr %4, align 8
  store i32 1, ptr %10, align 4
  br label %117

117:                                              ; preds = %112, %110, %100, %89, %19
  call void @llvm.lifetime.end.p0(i64 8, ptr %9) #8
  call void @llvm.lifetime.end.p0(i64 8, ptr %8) #8
  %118 = load ptr, ptr %4, align 8
  ret ptr %118
}