; Function Attrs: nounwind uwtable
define internal fastcc ptr @get_useful_pathkeys_for_distinct(ptr noundef readonly captures(none) %0, ptr noundef %1, ptr noundef readonly captures(address_is_null) %2) unnamed_addr #0 {
  %4 = tail call ptr @lappend(ptr noundef null, ptr noundef %1) #12
  %5 = load i8, ptr @enable_distinct_reordering, align 1, !range !4, !noundef !5
  %6 = trunc nuw i8 %5 to i1
  br i1 %6, label %.preheader36, label %.split.us.thread

.preheader36:                                     ; preds = %3
  %7 = getelementptr inbounds nuw i8, ptr %2, i64 4
  %.not33 = icmp eq ptr %2, null
  %8 = getelementptr inbounds nuw i8, ptr %2, i64 16
  %9 = getelementptr inbounds nuw i8, ptr %0, i64 8
  %10 = getelementptr inbounds nuw i8, ptr %0, i64 344
  br i1 %.not33, label %.split.us.thread, label %.lr.ph.split

.lr.ph.split:                                     ; preds = %.preheader36
  %11 = load i32, ptr %7, align 4
  %12 = icmp sgt i32 %11, 0
  br i1 %12, label %.lr.ph50, label %.split.us.thread

.split.us:                                        ; preds = %23, %.lr.ph50, %26
  %.us-phi53 = phi ptr [ %27, %26 ], [ %.13749, %.lr.ph50 ], [ %.13749, %23 ]
  %13 = icmp eq ptr %.us-phi53, null
  br i1 %13, label %.split.us.thread, label %list_length.exit

.lr.ph50:                                         ; preds = %.lr.ph.split, %26
  %indvars.iv = phi i64 [ %indvars.iv.next, %26 ], [ 0, %.lr.ph.split ]
  %.13749 = phi ptr [ %27, %26 ], [ null, %.lr.ph.split ]
  %14 = load ptr, ptr %8, align 8
  %15 = getelementptr inbounds nuw %union.ListCell, ptr %14, i64 %indvars.iv
  %16 = load ptr, ptr %15, align 8
  %17 = tail call zeroext i1 @list_member_ptr(ptr noundef %1, ptr noundef %16) #12
  br i1 %17, label %18, label %.split.us

18:                                               ; preds = %.lr.ph50
  %19 = load ptr, ptr %9, align 8
  %20 = getelementptr inbounds nuw i8, ptr %19, i64 48
  %21 = load i8, ptr %20, align 8, !range !4, !noundef !5
  %22 = trunc nuw i8 %21 to i1
  br i1 %22, label %23, label %26

23:                                               ; preds = %18
  %24 = load ptr, ptr %10, align 8
  %25 = tail call zeroext i1 @list_member_ptr(ptr noundef %24, ptr noundef %16) #12
  br i1 %25, label %26, label %.split.us

26:                                               ; preds = %23, %18
  %27 = tail call ptr @lappend(ptr noundef %.13749, ptr noundef %16) #12
  %indvars.iv.next = add nuw nsw i64 %indvars.iv, 1
  %28 = load i32, ptr %7, align 4
  %29 = sext i32 %28 to i64
  %30 = icmp slt i64 %indvars.iv.next, %29
  br i1 %30, label %.lr.ph50, label %.split.us

list_length.exit:                                 ; preds = %.split.us
  %31 = getelementptr inbounds nuw i8, ptr %.us-phi53, i64 4
  %32 = load i32, ptr %31, align 4
  %.not.i34 = icmp eq ptr %1, null
  br i1 %.not.i34, label %list_length.exit35, label %33

33:                                               ; preds = %list_length.exit
  %34 = getelementptr inbounds nuw i8, ptr %1, i64 4
  %35 = load i32, ptr %34, align 4
  br label %list_length.exit35

list_length.exit35:                               ; preds = %list_length.exit, %33
  %36 = phi i32 [ %35, %33 ], [ 0, %list_length.exit ]
  %37 = icmp slt i32 %32, %36
  br i1 %37, label %38, label %41

38:                                               ; preds = %list_length.exit35
  %39 = load i8, ptr @enable_incremental_sort, align 1, !range !4, !noundef !5
  %40 = trunc nuw i8 %39 to i1
  br i1 %40, label %41, label %.split.us.thread

41:                                               ; preds = %38, %list_length.exit35
  %42 = tail call ptr @list_concat_unique_ptr(ptr noundef nonnull %.us-phi53, ptr noundef %1) #12
  %43 = tail call i32 @compare_pathkeys(ptr noundef %1, ptr noundef %42) #12
  %44 = icmp eq i32 %43, 0
  br i1 %44, label %.split.us.thread, label %45

45:                                               ; preds = %41
  %46 = tail call ptr @lappend(ptr noundef %4, ptr noundef %42) #12
  br label %.split.us.thread

.split.us.thread:                                 ; preds = %.lr.ph.split, %.preheader36, %41, %38, %.split.us, %3, %45
  %.0 = phi ptr [ %46, %45 ], [ %4, %3 ], [ %4, %.split.us ], [ %4, %38 ], [ %4, %41 ], [ %4, %.preheader36 ], [ %4, %.lr.ph.split ]
  ret ptr %.0
}